# SymbolsHelper-Confirmed: 6.0.0 amd64
libKF6NotifyConfig.so.6 libkf6notifyconfig6 #MINVER#
* Build-Depends-Package: libkf6notifyconfig-dev
 _ZN19KNotifyConfigWidget11qt_metacallEN11QMetaObject4CallEiPPv@Base 6.0.0
 _ZN19KNotifyConfigWidget11qt_metacastEPKc@Base 6.0.0
 _ZN19KNotifyConfigWidget11selectEventERK7QString@Base 6.0.0
 _ZN19KNotifyConfigWidget14setApplicationERK7QString@Base 6.0.0
 _ZN19KNotifyConfigWidget16disableAllSoundsEv@Base 6.0.0
 _ZN19KNotifyConfigWidget16revertToDefaultsEv@Base 6.0.0
 _ZN19KNotifyConfigWidget16staticMetaObjectE@Base 6.0.0
 _ZN19KNotifyConfigWidget4saveEv@Base 6.0.0
 _ZN19KNotifyConfigWidget7changedEb@Base 6.0.0
 _ZN19KNotifyConfigWidget9configureEP7QWidgetRK7QString@Base 6.0.0
 _ZN19KNotifyConfigWidgetC1EP7QWidget@Base 6.0.0
 _ZN19KNotifyConfigWidgetC2EP7QWidget@Base 6.0.0
 _ZN19KNotifyConfigWidgetD0Ev@Base 6.0.0
 _ZN19KNotifyConfigWidgetD1Ev@Base 6.0.0
 _ZN19KNotifyConfigWidgetD2Ev@Base 6.0.0
 _ZNK19KNotifyConfigWidget10metaObjectEv@Base 6.0.0
 (optional=templinst)_ZNSt8_Rb_treeI7QStringSt4pairIKS0_S0_ESt10_Select1stIS3_ESt4lessIS0_ESaIS3_EE16_M_insert_uniqueIS3_EES1_ISt17_Rb_tree_iteratorIS3_EbEOT_@Base 6.0.0
 _ZTI19KNotifyConfigWidget@Base 6.0.0
 _ZTS19KNotifyConfigWidget@Base 6.0.0
 _ZTV19KNotifyConfigWidget@Base 6.0.0
 (c++)"non-virtual thunk to KNotifyConfigWidget::~KNotifyConfigWidget()@Base" 6.0.0
